; ModuleID = '19/584.c'
source_filename = "19/584.c"
target datalayout = "e-m:e-p270:32:32-p271:32:32-p272:64:64-i64:64-f80:128-n8:16:32:64-S128"
target triple = "x86_64-pc-linux-gnu"

@.str = private unnamed_addr constant [2 x i8] c" \00", align 1
@.str.1 = private unnamed_addr constant [3 x i8] c"%s\00", align 1

; Function Attrs: noinline nounwind uwtable
define dso_local i32 @main() #0 {
  %1 = alloca i32, align 4
  %2 = alloca [100 x i8], align 16
  %3 = alloca [100 x i8], align 16
  %4 = alloca [100 x i8], align 16
  %5 = alloca [100 x i8], align 16
  %6 = alloca i32, align 4
  %7 = alloca i32, align 4
  %8 = alloca i32, align 4
  %9 = alloca i32, align 4
  %10 = alloca i32, align 4
  %11 = alloca i32, align 4
  %12 = alloca i32, align 4
  store i32 0, i32* %1, align 4
  store i32 0, i32* %7, align 4
  store i32 1, i32* %8, align 4
  store i32 0, i32* %11, align 4
  store i32 0, i32* %12, align 4
  %13 = getelementptr inbounds [100 x i8], [100 x i8]* %2, i64 0, i64 0
  %14 = call i32 (i8*, ...) bitcast (i32 (...)* @gets to i32 (i8*, ...)*)(i8* %13)
  %15 = getelementptr inbounds [100 x i8], [100 x i8]* %3, i64 0, i64 0
  %16 = call i32 (i8*, ...) bitcast (i32 (...)* @gets to i32 (i8*, ...)*)(i8* %15)
  %17 = getelementptr inbounds [100 x i8], [100 x i8]* %4, i64 0, i64 0
  %18 = call i32 (i8*, ...) bitcast (i32 (...)* @gets to i32 (i8*, ...)*)(i8* %17)
  %19 = getelementptr inbounds [100 x i8], [100 x i8]* %2, i64 0, i64 0
  %20 = call i8* @strcat(i8* %19, i8* getelementptr inbounds ([2 x i8], [2 x i8]* @.str, i64 0, i64 0)) #4
  %21 = getelementptr inbounds [100 x i8], [100 x i8]* %2, i64 0, i64 0
  %22 = call i64 @strlen(i8* %21) #5
  %23 = trunc i64 %22 to i32
  store i32 %23, i32* %6, align 4
  store i32 0, i32* %9, align 4
  br label %24

24:                                               ; preds = %44, %0
  %25 = load i32, i32* %9, align 4
  %26 = load i32, i32* %6, align 4
  %27 = add nsw i32 %26, 1
  %28 = icmp slt i32 %25, %27
  br i1 %28, label %29, label %47

29:                                               ; preds = %24
  %30 = load i32, i32* %9, align 4
  %31 = sext i32 %30 to i64
  %32 = getelementptr inbounds [100 x i8], [100 x i8]* %2, i64 0, i64 %31
  %33 = load i8, i8* %32, align 1
  %34 = sext i8 %33 to i32
  %35 = icmp eq i32 %34, 32
  br i1 %35, label %36, label %37

36:                                               ; preds = %29
  store i32 0, i32* %8, align 4
  br label %37

37:                                               ; preds = %36, %29
  %38 = load i32, i32* %8, align 4
  %39 = icmp eq i32 %38, 0
  br i1 %39, label %40, label %43

40:                                               ; preds = %37
  store i32 1, i32* %8, align 4
  %41 = load i32, i32* %7, align 4
  %42 = add nsw i32 %41, 1
  store i32 %42, i32* %7, align 4
  br label %43

43:                                               ; preds = %40, %37
  br label %44

44:                                               ; preds = %43
  %45 = load i32, i32* %9, align 4
  %46 = add nsw i32 %45, 1
  store i32 %46, i32* %9, align 4
  br label %24

47:                                               ; preds = %24
  store i32 0, i32* %9, align 4
  br label %48

48:                                               ; preds = %103, %47
  %49 = load i32, i32* %9, align 4
  %50 = load i32, i32* %7, align 4
  %51 = icmp slt i32 %49, %50
  br i1 %51, label %52, label %106

52:                                               ; preds = %48
  %53 = load i32, i32* %11, align 4
  store i32 %53, i32* %10, align 4
  br label %54

54:                                               ; preds = %82, %52
  %55 = load i32, i32* %10, align 4
  %56 = sext i32 %55 to i64
  %57 = getelementptr inbounds [100 x i8], [100 x i8]* %2, i64 0, i64 %56
  %58 = load i8, i8* %57, align 1
  %59 = sext i8 %58 to i32
  %60 = icmp ne i32 %59, 32
  br i1 %60, label %61, label %71

61:                                               ; preds = %54
  %62 = load i32, i32* %10, align 4
  %63 = sext i32 %62 to i64
  %64 = getelementptr inbounds [100 x i8], [100 x i8]* %2, i64 0, i64 %63
  %65 = load i8, i8* %64, align 1
  %66 = load i32, i32* %10, align 4
  %67 = load i32, i32* %11, align 4
  %68 = sub nsw i32 %66, %67
  %69 = sext i32 %68 to i64
  %70 = getelementptr inbounds [100 x i8], [100 x i8]* %5, i64 0, i64 %69
  store i8 %65, i8* %70, align 1
  br label %81

71:                                               ; preds = %54
  %72 = load i32, i32* %10, align 4
  %73 = load i32, i32* %11, align 4
  %74 = sub nsw i32 %72, %73
  %75 = sext i32 %74 to i64
  %76 = getelementptr inbounds [100 x i8], [100 x i8]* %5, i64 0, i64 %75
  store i8 0, i8* %76, align 1
  %77 = load i32, i32* %10, align 4
  %78 = add nsw i32 %77, 1
  store i32 %78, i32* %11, align 4
  %79 = load i32, i32* %12, align 4
  %80 = add nsw i32 %79, 1
  store i32 %80, i32* %12, align 4
  br label %85

81:                                               ; preds = %61
  br label %82

82:                                               ; preds = %81
  %83 = load i32, i32* %10, align 4
  %84 = add nsw i32 %83, 1
  store i32 %84, i32* %10, align 4
  br label %54

85:                                               ; preds = %71
  %86 = getelementptr inbounds [100 x i8], [100 x i8]* %5, i64 0, i64 0
  %87 = getelementptr inbounds [100 x i8], [100 x i8]* %3, i64 0, i64 0
  %88 = call i32 @strcmp(i8* %86, i8* %87) #5
  %89 = icmp eq i32 %88, 0
  br i1 %89, label %90, label %94

90:                                               ; preds = %85
  %91 = getelementptr inbounds [100 x i8], [100 x i8]* %5, i64 0, i64 0
  %92 = getelementptr inbounds [100 x i8], [100 x i8]* %4, i64 0, i64 0
  %93 = call i8* @strcpy(i8* %91, i8* %92) #4
  br label %94

94:                                               ; preds = %90, %85
  %95 = getelementptr inbounds [100 x i8], [100 x i8]* %5, i64 0, i64 0
  %96 = call i32 (i8*, ...) @printf(i8* getelementptr inbounds ([3 x i8], [3 x i8]* @.str.1, i64 0, i64 0), i8* %95)
  %97 = load i32, i32* %12, align 4
  %98 = load i32, i32* %7, align 4
  %99 = icmp ne i32 %97, %98
  br i1 %99, label %100, label %102

100:                                              ; preds = %94
  %101 = call i32 (i8*, ...) @printf(i8* getelementptr inbounds ([2 x i8], [2 x i8]* @.str, i64 0, i64 0))
  br label %102

102:                                              ; preds = %100, %94
  br label %103

103:                                              ; preds = %102
  %104 = load i32, i32* %9, align 4
  %105 = add nsw i32 %104, 1
  store i32 %105, i32* %9, align 4
  br label %48

106:                                              ; preds = %48
  ret i32 0
}

declare dso_local i32 @gets(...) #1

; Function Attrs: nounwind
declare dso_local i8* @strcat(i8*, i8*) #2

; Function Attrs: nounwind readonly
declare dso_local i64 @strlen(i8*) #3

; Function Attrs: nounwind readonly
declare dso_local i32 @strcmp(i8*, i8*) #3

; Function Attrs: nounwind
declare dso_local i8* @strcpy(i8*, i8*) #2

declare dso_local i32 @printf(i8*, ...) #1


!llvm.module.flags = !{!0}
!llvm.ident = !{!1}

!0 = !{i32 1, !"wchar_size", i32 4}
!1 = !{!"clang version 10.0.0-4ubuntu1 "}
